target datalayout = "e-m:e-p270:32:32-p271:32:32-p272:64:64-i64:64-i128:128-f80:128-n8:16:32:64-S128"
target triple = "x86_64-pc-linux-gnu"

%struct.sp_int = type { i16, i16, [129 x i64] }

; Function Attrs: nounwind uwtable
define internal i32 @_sp_add_d(ptr noundef %0, i64 noundef %1, ptr noundef %2) #0 {
  %4 = alloca ptr, align 8
  %5 = alloca i64, align 8
  %6 = alloca ptr, align 8
  %7 = alloca i32, align 4
  %8 = alloca i32, align 4
  %9 = alloca i64, align 8
  store ptr %0, ptr %4, align 8, !tbaa !3
  store i64 %1, ptr %5, align 8, !tbaa !16
  store ptr %2, ptr %6, align 8, !tbaa !3
  call void @llvm.lifetime.start.p0(i64 4, ptr %7) #8
  store i32 0, ptr %7, align 4, !tbaa !8
  %10 = load ptr, ptr %4, align 8, !tbaa !3
  %11 = getelementptr inbounds nuw %struct.sp_int, ptr %10, i32 0, i32 0
  %12 = load i16, ptr %11, align 8, !tbaa !15
  %13 = zext i16 %12 to i32
  %14 = icmp eq i32 %13, 0
  br i1 %14, label %15, label %26

15:                                               ; preds = %3
  %16 = load i64, ptr %5, align 8, !tbaa !16
  %17 = load ptr, ptr %6, align 8, !tbaa !3
  %18 = getelementptr inbounds nuw %struct.sp_int, ptr %17, i32 0, i32 2
  %19 = getelementptr inbounds [129 x i64], ptr %18, i64 0, i64 0
  store i64 %16, ptr %19, align 8, !tbaa !16
  %20 = load i64, ptr %5, align 8, !tbaa !16
  %21 = icmp ugt i64 %20, 0
  %22 = zext i1 %21 to i32
  %23 = trunc i32 %22 to i16
  %24 = load ptr, ptr %6, align 8, !tbaa !3
  %25 = getelementptr inbounds nuw %struct.sp_int, ptr %24, i32 0, i32 0
  store i16 %23, ptr %25, align 8, !tbaa !15
  br label %144

26:                                               ; preds = %3
  call void @llvm.lifetime.start.p0(i64 4, ptr %8) #8
  store i32 0, ptr %8, align 4, !tbaa !8
  call void @llvm.lifetime.start.p0(i64 8, ptr %9) #8
  %27 = load ptr, ptr %4, align 8, !tbaa !3
  %28 = getelementptr inbounds nuw %struct.sp_int, ptr %27, i32 0, i32 2
  %29 = getelementptr inbounds [129 x i64], ptr %28, i64 0, i64 0
  %30 = load i64, ptr %29, align 8, !tbaa !16
  store i64 %30, ptr %9, align 8, !tbaa !16
  %31 = load ptr, ptr %4, align 8, !tbaa !3
  %32 = getelementptr inbounds nuw %struct.sp_int, ptr %31, i32 0, i32 0
  %33 = load i16, ptr %32, align 8, !tbaa !15
  %34 = load ptr, ptr %6, align 8, !tbaa !3
  %35 = getelementptr inbounds nuw %struct.sp_int, ptr %34, i32 0, i32 0
  store i16 %33, ptr %35, align 8, !tbaa !15
  %36 = load i64, ptr %9, align 8, !tbaa !16
  %37 = load i64, ptr %5, align 8, !tbaa !16
  %38 = add i64 %36, %37
  %39 = load ptr, ptr %6, align 8, !tbaa !3
  %40 = getelementptr inbounds nuw %struct.sp_int, ptr %39, i32 0, i32 2
  %41 = getelementptr inbounds [129 x i64], ptr %40, i64 0, i64 0
  store i64 %38, ptr %41, align 8, !tbaa !16
  %42 = load ptr, ptr %6, align 8, !tbaa !3
  %43 = getelementptr inbounds nuw %struct.sp_int, ptr %42, i32 0, i32 2
  %44 = getelementptr inbounds [129 x i64], ptr %43, i64 0, i64 0
  %45 = load i64, ptr %44, align 8, !tbaa !16
  %46 = load i64, ptr %9, align 8, !tbaa !16
  %47 = icmp ult i64 %45, %46
  br i1 %47, label %48, label %110

48:                                               ; preds = %26
  %49 = load i32, ptr %8, align 4, !tbaa !8
  %50 = add i32 %49, 1
  store i32 %50, ptr %8, align 4, !tbaa !8
  br label %51

51:                                               ; preds = %80, %48
  %52 = load i32, ptr %8, align 4, !tbaa !8
  %53 = load ptr, ptr %4, align 8, !tbaa !3
  %54 = getelementptr inbounds nuw %struct.sp_int, ptr %53, i32 0, i32 0
  %55 = load i16, ptr %54, align 8, !tbaa !15
  %56 = zext i16 %55 to i32
  %57 = icmp ult i32 %52, %56
  br i1 %57, label %58, label %83

58:                                               ; preds = %51
  %59 = load ptr, ptr %4, align 8, !tbaa !3
  %60 = getelementptr inbounds nuw %struct.sp_int, ptr %59, i32 0, i32 2
  %61 = load i32, ptr %8, align 4, !tbaa !8
  %62 = zext i32 %61 to i64
  %63 = getelementptr inbounds nuw [129 x i64], ptr %60, i64 0, i64 %62
  %64 = load i64, ptr %63, align 8, !tbaa !16
  %65 = add i64 %64, 1
  %66 = load ptr, ptr %6, align 8, !tbaa !3
  %67 = getelementptr inbounds nuw %struct.sp_int, ptr %66, i32 0, i32 2
  %68 = load i32, ptr %8, align 4, !tbaa !8
  %69 = zext i32 %68 to i64
  %70 = getelementptr inbounds nuw [129 x i64], ptr %67, i64 0, i64 %69
  store i64 %65, ptr %70, align 8, !tbaa !16
  %71 = load ptr, ptr %6, align 8, !tbaa !3
  %72 = getelementptr inbounds nuw %struct.sp_int, ptr %71, i32 0, i32 2
  %73 = load i32, ptr %8, align 4, !tbaa !8
  %74 = zext i32 %73 to i64
  %75 = getelementptr inbounds nuw [129 x i64], ptr %72, i64 0, i64 %74
  %76 = load i64, ptr %75, align 8, !tbaa !16
  %77 = icmp ne i64 %76, 0
  br i1 %77, label %78, label %79

78:                                               ; preds = %58
  br label %83

79:                                               ; preds = %58
  br label %80

80:                                               ; preds = %79
  %81 = load i32, ptr %8, align 4, !tbaa !8
  %82 = add i32 %81, 1
  store i32 %82, ptr %8, align 4, !tbaa !8
  br label %51, !llvm.loop !42

83:                                               ; preds = %78, %51
  %84 = load i32, ptr %8, align 4, !tbaa !8
  %85 = load ptr, ptr %4, align 8, !tbaa !3
  %86 = getelementptr inbounds nuw %struct.sp_int, ptr %85, i32 0, i32 0
  %87 = load i16, ptr %86, align 8, !tbaa !15
  %88 = zext i16 %87 to i32
  %89 = icmp eq i32 %84, %88
  br i1 %89, label %90, label %109

90:                                               ; preds = %83
  %91 = load i32, ptr %8, align 4, !tbaa !8
  %92 = load ptr, ptr %6, align 8, !tbaa !3
  %93 = getelementptr inbounds nuw %struct.sp_int, ptr %92, i32 0, i32 1
  %94 = load i16, ptr %93, align 2, !tbaa !12
  %95 = zext i16 %94 to i32
  %96 = icmp ult i32 %91, %95
  br i1 %96, label %97, label %107

97:                                               ; preds = %90
  %98 = load ptr, ptr %6, align 8, !tbaa !3
  %99 = getelementptr inbounds nuw %struct.sp_int, ptr %98, i32 0, i32 0
  %100 = load i16, ptr %99, align 8, !tbaa !15
  %101 = add i16 %100, 1
  store i16 %101, ptr %99, align 8, !tbaa !15
  %102 = load ptr, ptr %6, align 8, !tbaa !3
  %103 = getelementptr inbounds nuw %struct.sp_int, ptr %102, i32 0, i32 2
  %104 = load i32, ptr %8, align 4, !tbaa !8
  %105 = zext i32 %104 to i64
  %106 = getelementptr inbounds nuw [129 x i64], ptr %103, i64 0, i64 %105
  store i64 1, ptr %106, align 8, !tbaa !16
  br label %108

107:                                              ; preds = %90
  store i32 -98, ptr %7, align 4, !tbaa !8
  br label %108

108:                                              ; preds = %107, %97
  br label %109

109:                                              ; preds = %108, %83
  br label %110

110:                                              ; preds = %109, %26
  %111 = load i32, ptr %7, align 4, !tbaa !8
  %112 = icmp eq i32 %111, 0
  br i1 %112, label %113, label %143

113:                                              ; preds = %110
  %114 = load ptr, ptr %6, align 8, !tbaa !3
  %115 = load ptr, ptr %4, align 8, !tbaa !3
  %116 = icmp ne ptr %114, %115
  br i1 %116, label %117, label %143

117:                                              ; preds = %113
  %118 = load i32, ptr %8, align 4, !tbaa !8
  %119 = add i32 %118, 1
  store i32 %119, ptr %8, align 4, !tbaa !8
  br label %120

120:                                              ; preds = %139, %117
  %121 = load i32, ptr %8, align 4, !tbaa !8
  %122 = load ptr, ptr %4, align 8, !tbaa !3
  %123 = getelementptr inbounds nuw %struct.sp_int, ptr %122, i32 0, i32 0
  %124 = load i16, ptr %123, align 8, !tbaa !15
  %125 = zext i16 %124 to i32
  %126 = icmp ult i32 %121, %125
  br i1 %126, label %127, label %142

127:                                              ; preds = %120
  %128 = load ptr, ptr %4, align 8, !tbaa !3
  %129 = getelementptr inbounds nuw %struct.sp_int, ptr %128, i32 0, i32 2
  %130 = load i32, ptr %8, align 4, !tbaa !8
  %131 = zext i32 %130 to i64
  %132 = getelementptr inbounds nuw [129 x i64], ptr %129, i64 0, i64 %131
  %133 = load i64, ptr %132, align 8, !tbaa !16
  %134 = load ptr, ptr %6, align 8, !tbaa !3
  %135 = getelementptr inbounds nuw %struct.sp_int, ptr %134, i32 0, i32 2
  %136 = load i32, ptr %8, align 4, !tbaa !8
  %137 = zext i32 %136 to i64
  %138 = getelementptr inbounds nuw [129 x i64], ptr %135, i64 0, i64 %137
  store i64 %133, ptr %138, align 8, !tbaa !16
  br label %139

139:                                              ; preds = %127
  %140 = load i32, ptr %8, align 4, !tbaa !8
  %141 = add i32 %140, 1
  store i32 %141, ptr %8, align 4, !tbaa !8
  br label %120, !llvm.loop !43

142:                                              ; preds = %120
  br label %143

143:                                              ; preds = %142, %113, %110
  call void @llvm.lifetime.end.p0(i64 8, ptr %9) #8
  call void @llvm.lifetime.end.p0(i64 4, ptr %8) #8
  br label %144

144:                                              ; preds = %143, %15
  %145 = load i32, ptr %7, align 4, !tbaa !8
  call void @llvm.lifetime.end.p0(i64 4, ptr %7) #8
  ret i32 %145
}

; Function Attrs: nounwind uwtable
define i32 @sp_add_d(ptr noundef %0, i64 noundef %1, ptr noundef %2) #0 {
  %4 = alloca ptr, align 8
  %5 = alloca i64, align 8
  %6 = alloca ptr, align 8
  %7 = alloca i32, align 4
  store ptr %0, ptr %4, align 8, !tbaa !3
  store i64 %1, ptr %5, align 8, !tbaa !16
  store ptr %2, ptr %6, align 8, !tbaa !3
  call void @llvm.lifetime.start.p0(i64 4, ptr %7) #8
  store i32 0, ptr %7, align 4, !tbaa !8
  %8 = load ptr, ptr %4, align 8, !tbaa !3
  %9 = icmp eq ptr %8, null
  br i1 %9, label %13, label %10

10:                                               ; preds = %3
  %11 = load ptr, ptr %6, align 8, !tbaa !3
  %12 = icmp eq ptr %11, null
  br i1 %12, label %13, label %14

13:                                               ; preds = %10, %3
  store i32 -98, ptr %7, align 4, !tbaa !8
  br label %14

14:                                               ; preds = %13, %10
  %15 = load i32, ptr %7, align 4, !tbaa !8
  %16 = icmp eq i32 %15, 0
  br i1 %16, label %17, label %29

17:                                               ; preds = %14
  %18 = load ptr, ptr %4, align 8, !tbaa !3
  %19 = getelementptr inbounds nuw %struct.sp_int, ptr %18, i32 0, i32 0
  %20 = load i16, ptr %19, align 8, !tbaa !15
  %21 = zext i16 %20 to i32
  %22 = add nsw i32 %21, 1
  %23 = load ptr, ptr %6, align 8, !tbaa !3
  %24 = getelementptr inbounds nuw %struct.sp_int, ptr %23, i32 0, i32 1
  %25 = load i16, ptr %24, align 2, !tbaa !12
  %26 = zext i16 %25 to i32
  %27 = icmp sgt i32 %22, %26
  br i1 %27, label %28, label %29

28:                                               ; preds = %17
  store i32 -98, ptr %7, align 4, !tbaa !8
  br label %29

29:                                               ; preds = %28, %17, %14
  %30 = load i32, ptr %7, align 4, !tbaa !8
  %31 = icmp eq i32 %30, 0
  br i1 %31, label %32, label %37

32:                                               ; preds = %29
  %33 = load ptr, ptr %4, align 8, !tbaa !3
  %34 = load i64, ptr %5, align 8, !tbaa !16
  %35 = load ptr, ptr %6, align 8, !tbaa !3
  %36 = call i32 @_sp_add_d(ptr noundef %33, i64 noundef %34, ptr noundef %35)
  store i32 %36, ptr %7, align 4, !tbaa !8
  br label %37

37:                                               ; preds = %32, %29
  %38 = load i32, ptr %7, align 4, !tbaa !8
  call void @llvm.lifetime.end.p0(i64 4, ptr %7) #8
  ret i32 %38
}