; Function Attrs: nofree norecurse nosync nounwind memory(argmem: readwrite) uwtable
define range(i32 -98, 1) i32 @sp_add_d(ptr noundef readonly captures(address) %0, i64 noundef %1, ptr noundef captures(address) %2) local_unnamed_addr #8 {
  %4 = icmp ne ptr %0, null
  %5 = icmp ne ptr %2, null
  %or.cond.not = and i1 %4, %5
  br i1 %or.cond.not, label %6, label %_sp_add_d.exit

6:                                                ; preds = %3
  %7 = load i16, ptr %0, align 8, !tbaa !12
  %8 = getelementptr inbounds nuw i8, ptr %2, i64 2
  %9 = load i16, ptr %8, align 2, !tbaa !10
  %.not = icmp ult i16 %7, %9
  br i1 %.not, label %.thread, label %_sp_add_d.exit

.thread:                                          ; preds = %6
  %10 = icmp eq i16 %7, 0
  br i1 %10, label %11, label %15

11:                                               ; preds = %.thread
  %12 = getelementptr inbounds nuw i8, ptr %2, i64 8
  store i64 %1, ptr %12, align 8, !tbaa !8
  %13 = icmp ne i64 %1, 0
  %14 = zext i1 %13 to i16
  store i16 %14, ptr %2, align 8, !tbaa !12
  br label %_sp_add_d.exit

15:                                               ; preds = %.thread
  %16 = getelementptr inbounds nuw i8, ptr %0, i64 8
  %17 = load i64, ptr %16, align 8, !tbaa !8
  store i16 %7, ptr %2, align 8, !tbaa !12
  %18 = add i64 %17, %1
  %19 = getelementptr inbounds nuw i8, ptr %2, i64 8
  store i64 %18, ptr %19, align 8, !tbaa !8
  %20 = icmp ult i64 %18, %17
  br i1 %20, label %.preheader51.i, label %36

.preheader51.i:                                   ; preds = %15
  %21 = load i16, ptr %0, align 8, !tbaa !12
  %22 = zext i16 %21 to i32
  %23 = icmp ugt i16 %21, 1
  br i1 %23, label %.lr.ph.preheader.i, label %._crit_edge.i

.lr.ph.preheader.i:                               ; preds = %.preheader51.i
  %wide.trip.count.i = zext i16 %21 to i64
  br label %.lr.ph.i

.lr.ph.i:                                         ; preds = %28, %.lr.ph.preheader.i
  %indvars.iv.i = phi i64 [ 1, %.lr.ph.preheader.i ], [ %indvars.iv.next.i, %28 ]
  %24 = getelementptr inbounds nuw [129 x i64], ptr %16, i64 0, i64 %indvars.iv.i
  %25 = load i64, ptr %24, align 8, !tbaa !8
  %26 = add i64 %25, 1
  %27 = getelementptr inbounds nuw [129 x i64], ptr %19, i64 0, i64 %indvars.iv.i
  store i64 %26, ptr %27, align 8, !tbaa !8
  %.not.i = icmp eq i64 %26, 0
  br i1 %.not.i, label %28, label %._crit_edge.loopexit.i

28:                                               ; preds = %.lr.ph.i
  %indvars.iv.next.i = add nuw nsw i64 %indvars.iv.i, 1
  %exitcond.not.i = icmp eq i64 %indvars.iv.next.i, %wide.trip.count.i
  br i1 %exitcond.not.i, label %._crit_edge.thread.i, label %.lr.ph.i, !llvm.loop !25

._crit_edge.loopexit.i:                           ; preds = %.lr.ph.i
  %29 = trunc nuw nsw i64 %indvars.iv.i to i32
  br label %._crit_edge.i

._crit_edge.i:                                    ; preds = %._crit_edge.loopexit.i, %.preheader51.i
  %.142.lcssa.i = phi i32 [ 1, %.preheader51.i ], [ %29, %._crit_edge.loopexit.i ]
  %30 = icmp eq i32 %.142.lcssa.i, %22
  br i1 %30, label %._crit_edge.thread.i, label %36

._crit_edge.thread.i:                             ; preds = %28, %._crit_edge.i
  %31 = icmp ult i16 %21, %9
  br i1 %31, label %32, label %_sp_add_d.exit

32:                                               ; preds = %._crit_edge.thread.i
  %33 = add i16 %7, 1
  store i16 %33, ptr %2, align 8, !tbaa !12
  %34 = zext i16 %21 to i64
  %35 = getelementptr inbounds nuw [129 x i64], ptr %19, i64 0, i64 %34
  store i64 1, ptr %35, align 8, !tbaa !8
  br label %36

36:                                               ; preds = %32, %._crit_edge.i, %15
  %.041.i = phi i32 [ %22, %32 ], [ %.142.lcssa.i, %._crit_edge.i ], [ 0, %15 ]
  %.not44.i = icmp eq ptr %2, %0
  br i1 %.not44.i, label %_sp_add_d.exit, label %.preheader.i

.preheader.i:                                     ; preds = %36
  %37 = load i16, ptr %0, align 8, !tbaa !12
  %38 = zext i16 %37 to i32
  %.257.i = add nuw i32 %.041.i, 1
  %39 = icmp ult i32 %.257.i, %38
  br i1 %39, label %.lr.ph59.preheader.i, label %_sp_add_d.exit

.lr.ph59.preheader.i:                             ; preds = %.preheader.i
  %40 = zext nneg i32 %.041.i to i64
  %41 = add nuw nsw i64 %40, 1
  %wide.trip.count65.i = zext i16 %37 to i64
  br label %.lr.ph59.i

.lr.ph59.i:                                       ; preds = %.lr.ph59.i, %.lr.ph59.preheader.i
  %indvars.iv62.i = phi i64 [ %41, %.lr.ph59.preheader.i ], [ %indvars.iv.next63.i, %.lr.ph59.i ]
  %42 = getelementptr inbounds nuw [129 x i64], ptr %16, i64 0, i64 %indvars.iv62.i
  %43 = load i64, ptr %42, align 8, !tbaa !8
  %44 = getelementptr inbounds nuw [129 x i64], ptr %19, i64 0, i64 %indvars.iv62.i
  store i64 %43, ptr %44, align 8, !tbaa !8
  %indvars.iv.next63.i = add nuw nsw i64 %indvars.iv62.i, 1
  %exitcond66.not.i = icmp eq i64 %indvars.iv.next63.i, %wide.trip.count65.i
  br i1 %exitcond66.not.i, label %_sp_add_d.exit, label %.lr.ph59.i, !llvm.loop !26

_sp_add_d.exit:                                   ; preds = %.lr.ph59.i, %3, %6, %.preheader.i, %36, %._crit_edge.thread.i, %11
  %.1 = phi i32 [ 0, %11 ], [ 0, %36 ], [ -98, %._crit_edge.thread.i ], [ 0, %.preheader.i ], [ -98, %6 ], [ -98, %3 ], [ 0, %.lr.ph59.i ]
  ret i32 %.1
}